; Function Attrs: mustprogress uwtable
define dso_local void @__cxa_vec_cctor(ptr noundef %0, ptr noundef %1, i64 noundef %2, i64 noundef %3, ptr noundef readonly captures(address_is_null) %4, ptr noundef %5) local_unnamed_addr #0 personality ptr @__gxx_personality_v0 {
  %7 = alloca i64, align 8
  %8 = alloca %"class.__cxxabiv1::(anonymous namespace)::st_cxa_cleanup", align 8
  %.not = icmp eq ptr %4, null
  br i1 %.not, label %22, label %9

9:                                                ; preds = %6
  call void @llvm.lifetime.start.p0(i64 8, ptr nonnull %7) #12
  call void @llvm.lifetime.start.p0(i64 40, ptr nonnull %8) #12
  store ptr %0, ptr %8, align 8, !tbaa !8
  %10 = getelementptr inbounds nuw i8, ptr %8, i64 8
  store ptr %7, ptr %10, align 8, !tbaa !13
  %11 = getelementptr inbounds nuw i8, ptr %8, i64 16
  store i64 %3, ptr %11, align 8, !tbaa !14
  %12 = getelementptr inbounds nuw i8, ptr %8, i64 24
  store ptr %5, ptr %12, align 8, !tbaa !15
  %13 = getelementptr inbounds nuw i8, ptr %8, i64 32
  store i8 1, ptr %13, align 8, !tbaa !16
  store i64 0, ptr %7, align 8, !tbaa !4
  %.not19 = icmp eq i64 %2, 0
  br i1 %.not19, label %_ZN10__cxxabiv112_GLOBAL__N_114st_cxa_cleanupD2Ev.exit, label %.lr.ph

.lr.ph:                                           ; preds = %9, %14
  %.018 = phi ptr [ %17, %14 ], [ %1, %9 ]
  %.01517 = phi ptr [ %18, %14 ], [ %0, %9 ]
  invoke void %4(ptr noundef %.01517, ptr noundef %.018)
          to label %14 unwind label %20

14:                                               ; preds = %.lr.ph
  %15 = load i64, ptr %7, align 8, !tbaa !4
  %16 = add i64 %15, 1
  store i64 %16, ptr %7, align 8, !tbaa !4
  %17 = getelementptr inbounds nuw i8, ptr %.018, i64 %3
  %18 = getelementptr inbounds nuw i8, ptr %.01517, i64 %3
  %19 = icmp ult i64 %16, %2
  br i1 %19, label %.lr.ph, label %_ZN10__cxxabiv112_GLOBAL__N_114st_cxa_cleanupD2Ev.exit, !llvm.loop !19

20:                                               ; preds = %.lr.ph
  %21 = landingpad { ptr, i32 }
          cleanup
  call fastcc void @_ZN10__cxxabiv112_GLOBAL__N_114st_cxa_cleanupD2Ev(ptr noundef nonnull align 8 dereferenceable(33) %8) #12
  call void @llvm.lifetime.end.p0(i64 40, ptr nonnull %8) #12
  call void @llvm.lifetime.end.p0(i64 8, ptr nonnull %7) #12
  resume { ptr, i32 } %21

_ZN10__cxxabiv112_GLOBAL__N_114st_cxa_cleanupD2Ev.exit: ; preds = %14, %9
  call void @llvm.lifetime.end.p0(i64 40, ptr nonnull %8) #12
  call void @llvm.lifetime.end.p0(i64 8, ptr nonnull %7) #12
  br label %22

22:                                               ; preds = %_ZN10__cxxabiv112_GLOBAL__N_114st_cxa_cleanupD2Ev.exit, %6
  ret void
}